; Function Attrs: nounwind uwtable
define i32 @pmix_pgpu_base_deliver_inventory(ptr noundef %0, i64 noundef %1, ptr noundef %2, i64 noundef %3) local_unnamed_addr #0 {
  %.01217 = load ptr, ptr getelementptr inbounds nuw (i8, ptr @pmix_pgpu_globals, i64 240), align 8, !tbaa !22
  %.not18 = icmp eq ptr %.01217, getelementptr inbounds nuw (i8, ptr @pmix_pgpu_globals, i64 120)
  br i1 %.not18, label %._crit_edge, label %.lr.ph

.lr.ph:                                           ; preds = %4, %21
  %.01219 = phi ptr [ %.012, %21 ], [ %.01217, %4 ]
  %5 = getelementptr inbounds nuw i8, ptr %.01219, i64 152
  %6 = load ptr, ptr %5, align 8, !tbaa !66
  %7 = getelementptr inbounds nuw i8, ptr %6, i64 80
  %8 = load ptr, ptr %7, align 8, !tbaa !97
  %.not15 = icmp eq ptr %8, null
  br i1 %.not15, label %21, label %9

9:                                                ; preds = %.lr.ph
  %10 = load i32, ptr getelementptr inbounds nuw (i8, ptr @pmix_pgpu_base_framework, i64 76), align 4, !tbaa !3
  %or.cond = icmp ult i32 %10, 64
  br i1 %or.cond, label %11, label %18

11:                                               ; preds = %9
  %12 = zext nneg i32 %10 to i64
  %13 = getelementptr inbounds nuw [0 x %struct.pmix_output_desc_t], ptr @pmix_output_info, i64 0, i64 %12, i32 2
  %14 = load i32, ptr %13, align 4, !tbaa !18
  %15 = icmp sgt i32 %14, 4
  br i1 %15, label %16, label %18

16:                                               ; preds = %11
  %17 = load ptr, ptr %6, align 8, !tbaa !95
  tail call void (i32, ptr, ...) @pmix_output(i32 noundef %10, ptr noundef nonnull @.str.9, ptr noundef %17) #11
  %.pre = load ptr, ptr %5, align 8, !tbaa !66
  %.phi.trans.insert = getelementptr inbounds nuw i8, ptr %.pre, i64 80
  %.pre22 = load ptr, ptr %.phi.trans.insert, align 8, !tbaa !97
  br label %18

18:                                               ; preds = %16, %11, %9
  %19 = phi ptr [ %.pre22, %16 ], [ %8, %11 ], [ %8, %9 ]
  %20 = tail call i32 %19(ptr noundef %0, i64 noundef %1, ptr noundef %2, i64 noundef %3) #11
  %.not16 = icmp eq i32 %20, 0
  br i1 %.not16, label %21, label %._crit_edge

21:                                               ; preds = %.lr.ph, %18
  %22 = getelementptr inbounds nuw i8, ptr %.01219, i64 120
  %.012 = load ptr, ptr %22, align 8, !tbaa !22
  %.not = icmp eq ptr %.012, getelementptr inbounds nuw (i8, ptr @pmix_pgpu_globals, i64 120)
  br i1 %.not, label %._crit_edge, label %.lr.ph, !llvm.loop !98

._crit_edge:                                      ; preds = %18, %21, %4
  %.0 = phi i32 [ 0, %4 ], [ 0, %21 ], [ %20, %18 ]
  ret i32 %.0
}